target datalayout = "e-m:e-p270:32:32-p271:32:32-p272:64:64-i64:64-i128:128-f80:128-n8:16:32:64-S128"
target triple = "x86_64-pc-linux-gnu"

%struct.AVFilterContext = type { ptr, ptr, ptr, ptr, ptr, i32, ptr, ptr, i32, ptr, ptr, i32, i32, ptr, ptr, ptr, ptr, i32, ptr, i32, i32 }
%struct.TrimContext = type { ptr, i64, i64, i64, i64, i64, i64, i64, i64, i64, i64, i64, i64, i64, i64, i32, ptr }
%struct.AVRational = type { i32, i32 }
%struct.AVFilterLink = type { ptr, ptr, ptr, ptr, i32, i32, i32, i32, %struct.AVRational, i32, i32, i32, %struct.AVChannelLayout, %struct.AVRational, ptr, i32, %struct.AVFilterFormatsConfig, %struct.AVFilterFormatsConfig }
%struct.AVChannelLayout = type { i32, i32, %union.anon.1, ptr }
%union.anon.1 = type { i64 }
%struct.AVFilterFormatsConfig = type { ptr, ptr, ptr, ptr, ptr }

; Function Attrs: nounwind uwtable
define internal i32 @config_input(ptr noundef %0) #1 {
  %2 = alloca ptr, align 8
  %3 = alloca ptr, align 8
  %4 = alloca ptr, align 8
  %5 = alloca %struct.AVRational, align 4
  %6 = alloca i64, align 8
  %7 = alloca %struct.AVRational, align 4
  %8 = alloca i64, align 8
  %9 = alloca %struct.AVRational, align 4
  %10 = alloca %struct.AVRational, align 4
  store ptr %0, ptr %2, align 8, !tbaa !28
  call void @llvm.lifetime.start.p0(i64 8, ptr %3) #7
  %11 = load ptr, ptr %2, align 8, !tbaa !28
  %12 = getelementptr inbounds nuw %struct.AVFilterLink, ptr %11, i32 0, i32 2
  %13 = load ptr, ptr %12, align 8, !tbaa !37
  store ptr %13, ptr %3, align 8, !tbaa !4
  call void @llvm.lifetime.start.p0(i64 8, ptr %4) #7
  %14 = load ptr, ptr %3, align 8, !tbaa !4
  %15 = getelementptr inbounds nuw %struct.AVFilterContext, ptr %14, i32 0, i32 9
  %16 = load ptr, ptr %15, align 8, !tbaa !9
  store ptr %16, ptr %4, align 8, !tbaa !22
  call void @llvm.lifetime.start.p0(i64 8, ptr %5) #7
  %17 = load ptr, ptr %2, align 8, !tbaa !28
  %18 = getelementptr inbounds nuw %struct.AVFilterLink, ptr %17, i32 0, i32 4
  %19 = load i32, ptr %18, align 8, !tbaa !45
  %20 = icmp eq i32 %19, 0
  br i1 %20, label %21, label %24

21:                                               ; preds = %1
  %22 = load ptr, ptr %2, align 8, !tbaa !28
  %23 = getelementptr inbounds nuw %struct.AVFilterLink, ptr %22, i32 0, i32 13
  call void @llvm.memcpy.p0.p0.i64(ptr align 4 %5, ptr align 8 %23, i64 8, i1 false), !tbaa.struct !46
  br label %30

24:                                               ; preds = %1
  %25 = getelementptr inbounds nuw %struct.AVRational, ptr %5, i32 0, i32 0
  store i32 1, ptr %25, align 4, !tbaa !47
  %26 = getelementptr inbounds nuw %struct.AVRational, ptr %5, i32 0, i32 1
  %27 = load ptr, ptr %2, align 8, !tbaa !28
  %28 = getelementptr inbounds nuw %struct.AVFilterLink, ptr %27, i32 0, i32 11
  %29 = load i32, ptr %28, align 8, !tbaa !48
  store i32 %29, ptr %26, align 4, !tbaa !49
  br label %30

30:                                               ; preds = %24, %21
  %31 = load ptr, ptr %2, align 8, !tbaa !28
  %32 = getelementptr inbounds nuw %struct.AVFilterLink, ptr %31, i32 0, i32 4
  %33 = load i32, ptr %32, align 8, !tbaa !45
  %34 = icmp eq i32 %33, 0
  br i1 %34, label %35, label %38

35:                                               ; preds = %30
  %36 = load ptr, ptr %4, align 8, !tbaa !22
  %37 = getelementptr inbounds nuw %struct.TrimContext, ptr %36, i32 0, i32 16
  store ptr @trim_filter_frame, ptr %37, align 8, !tbaa !35
  br label %38

38:                                               ; preds = %35, %30
  %39 = load ptr, ptr %2, align 8, !tbaa !28
  %40 = getelementptr inbounds nuw %struct.AVFilterLink, ptr %39, i32 0, i32 4
  %41 = load i32, ptr %40, align 8, !tbaa !45
  %42 = icmp eq i32 %41, 1
  br i1 %42, label %43, label %46

43:                                               ; preds = %38
  %44 = load ptr, ptr %4, align 8, !tbaa !22
  %45 = getelementptr inbounds nuw %struct.TrimContext, ptr %44, i32 0, i32 16
  store ptr @atrim_filter_frame, ptr %45, align 8, !tbaa !35
  br label %46

46:                                               ; preds = %43, %38
  %47 = load ptr, ptr %4, align 8, !tbaa !22
  %48 = getelementptr inbounds nuw %struct.TrimContext, ptr %47, i32 0, i32 2
  %49 = load i64, ptr %48, align 8, !tbaa !50
  %50 = icmp ne i64 %49, 9223372036854775807
  br i1 %50, label %51, label %75

51:                                               ; preds = %46
  call void @llvm.lifetime.start.p0(i64 8, ptr %6) #7
  %52 = load ptr, ptr %4, align 8, !tbaa !22
  %53 = getelementptr inbounds nuw %struct.TrimContext, ptr %52, i32 0, i32 2
  %54 = load i64, ptr %53, align 8, !tbaa !50
  %55 = getelementptr inbounds nuw %struct.AVRational, ptr %7, i32 0, i32 0
  store i32 1, ptr %55, align 4, !tbaa !47
  %56 = getelementptr inbounds nuw %struct.AVRational, ptr %7, i32 0, i32 1
  store i32 1000000, ptr %56, align 4, !tbaa !49
  %57 = load i64, ptr %7, align 4
  %58 = load i64, ptr %5, align 4
  %59 = call i64 @av_rescale_q(i64 noundef %54, i64 %57, i64 %58) #8
  store i64 %59, ptr %6, align 8, !tbaa !36
  %60 = load ptr, ptr %4, align 8, !tbaa !22
  %61 = getelementptr inbounds nuw %struct.TrimContext, ptr %60, i32 0, i32 6
  %62 = load i64, ptr %61, align 8, !tbaa !51
  %63 = icmp eq i64 %62, -9223372036854775808
  br i1 %63, label %70, label %64

64:                                               ; preds = %51
  %65 = load i64, ptr %6, align 8, !tbaa !36
  %66 = load ptr, ptr %4, align 8, !tbaa !22
  %67 = getelementptr inbounds nuw %struct.TrimContext, ptr %66, i32 0, i32 6
  %68 = load i64, ptr %67, align 8, !tbaa !51
  %69 = icmp slt i64 %65, %68
  br i1 %69, label %70, label %74

70:                                               ; preds = %64, %51
  %71 = load i64, ptr %6, align 8, !tbaa !36
  %72 = load ptr, ptr %4, align 8, !tbaa !22
  %73 = getelementptr inbounds nuw %struct.TrimContext, ptr %72, i32 0, i32 6
  store i64 %71, ptr %73, align 8, !tbaa !51
  br label %74

74:                                               ; preds = %70, %64
  call void @llvm.lifetime.end.p0(i64 8, ptr %6) #7
  br label %75

75:                                               ; preds = %74, %46
  %76 = load ptr, ptr %4, align 8, !tbaa !22
  %77 = getelementptr inbounds nuw %struct.TrimContext, ptr %76, i32 0, i32 3
  %78 = load i64, ptr %77, align 8, !tbaa !52
  %79 = icmp ne i64 %78, 9223372036854775807
  br i1 %79, label %80, label %104

80:                                               ; preds = %75
  call void @llvm.lifetime.start.p0(i64 8, ptr %8) #7
  %81 = load ptr, ptr %4, align 8, !tbaa !22
  %82 = getelementptr inbounds nuw %struct.TrimContext, ptr %81, i32 0, i32 3
  %83 = load i64, ptr %82, align 8, !tbaa !52
  %84 = getelementptr inbounds nuw %struct.AVRational, ptr %9, i32 0, i32 0
  store i32 1, ptr %84, align 4, !tbaa !47
  %85 = getelementptr inbounds nuw %struct.AVRational, ptr %9, i32 0, i32 1
  store i32 1000000, ptr %85, align 4, !tbaa !49
  %86 = load i64, ptr %9, align 4
  %87 = load i64, ptr %5, align 4
  %88 = call i64 @av_rescale_q(i64 noundef %83, i64 %86, i64 %87) #8
  store i64 %88, ptr %8, align 8, !tbaa !36
  %89 = load ptr, ptr %4, align 8, !tbaa !22
  %90 = getelementptr inbounds nuw %struct.TrimContext, ptr %89, i32 0, i32 7
  %91 = load i64, ptr %90, align 8, !tbaa !53
  %92 = icmp eq i64 %91, -9223372036854775808
  br i1 %92, label %99, label %93

93:                                               ; preds = %80
  %94 = load i64, ptr %8, align 8, !tbaa !36
  %95 = load ptr, ptr %4, align 8, !tbaa !22
  %96 = getelementptr inbounds nuw %struct.TrimContext, ptr %95, i32 0, i32 7
  %97 = load i64, ptr %96, align 8, !tbaa !53
  %98 = icmp sgt i64 %94, %97
  br i1 %98, label %99, label %103

99:                                               ; preds = %93, %80
  %100 = load i64, ptr %8, align 8, !tbaa !36
  %101 = load ptr, ptr %4, align 8, !tbaa !22
  %102 = getelementptr inbounds nuw %struct.TrimContext, ptr %101, i32 0, i32 7
  store i64 %100, ptr %102, align 8, !tbaa !53
  br label %103

103:                                              ; preds = %99, %93
  call void @llvm.lifetime.end.p0(i64 8, ptr %8) #7
  br label %104

104:                                              ; preds = %103, %75
  %105 = load ptr, ptr %4, align 8, !tbaa !22
  %106 = getelementptr inbounds nuw %struct.TrimContext, ptr %105, i32 0, i32 1
  %107 = load i64, ptr %106, align 8, !tbaa !54
  %108 = icmp ne i64 %107, 0
  br i1 %108, label %109, label %120

109:                                              ; preds = %104
  %110 = load ptr, ptr %4, align 8, !tbaa !22
  %111 = getelementptr inbounds nuw %struct.TrimContext, ptr %110, i32 0, i32 1
  %112 = load i64, ptr %111, align 8, !tbaa !54
  %113 = getelementptr inbounds nuw %struct.AVRational, ptr %10, i32 0, i32 0
  store i32 1, ptr %113, align 4, !tbaa !47
  %114 = getelementptr inbounds nuw %struct.AVRational, ptr %10, i32 0, i32 1
  store i32 1000000, ptr %114, align 4, !tbaa !49
  %115 = load i64, ptr %10, align 4
  %116 = load i64, ptr %5, align 4
  %117 = call i64 @av_rescale_q(i64 noundef %112, i64 %115, i64 %116) #8
  %118 = load ptr, ptr %4, align 8, !tbaa !22
  %119 = getelementptr inbounds nuw %struct.TrimContext, ptr %118, i32 0, i32 13
  store i64 %117, ptr %119, align 8, !tbaa !55
  br label %120

120:                                              ; preds = %109, %104
  call void @llvm.lifetime.end.p0(i64 8, ptr %5) #7
  call void @llvm.lifetime.end.p0(i64 8, ptr %4) #7
  call void @llvm.lifetime.end.p0(i64 8, ptr %3) #7
  ret i32 0
}