; Function Attrs: mustprogress nofree nosync nounwind willreturn memory(readwrite, inaccessiblemem: none) uwtable
define internal noundef i32 @config_input(ptr noundef readonly captures(none) %0) #2 {
  %2 = getelementptr inbounds nuw i8, ptr %0, i64 16
  %3 = load ptr, ptr %2, align 8, !tbaa !33
  %4 = getelementptr inbounds nuw i8, ptr %3, i64 72
  %5 = load ptr, ptr %4, align 8, !tbaa !4
  %6 = getelementptr inbounds nuw i8, ptr %0, i64 32
  %7 = load i32, ptr %6, align 8, !tbaa !42
  %8 = icmp eq i32 %7, 0
  br i1 %8, label %.thread62, label %11

.thread62:                                        ; preds = %1
  %9 = getelementptr inbounds nuw i8, ptr %0, i64 96
  %.sroa.08.0.copyload = load i32, ptr %9, align 8, !tbaa !31
  %.sroa.7.0..sroa_idx = getelementptr inbounds nuw i8, ptr %0, i64 100
  %10 = zext i32 %.sroa.08.0.copyload to i64
  %.sroa.7.057 = load i32, ptr %.sroa.7.0..sroa_idx, align 4, !tbaa !31
  br label %.sink.split

11:                                               ; preds = %1
  %12 = getelementptr inbounds nuw i8, ptr %0, i64 64
  %.sroa.7.0 = load i32, ptr %12, align 4, !tbaa !31
  %13 = icmp eq i32 %7, 1
  br i1 %13, label %.sink.split, label %15

.sink.split:                                      ; preds = %11, %.thread62
  %trim_filter_frame.sink = phi ptr [ @trim_filter_frame, %.thread62 ], [ @atrim_filter_frame, %11 ]
  %.sroa.08.05866.ph = phi i64 [ %10, %.thread62 ], [ 1, %11 ]
  %.sroa.7.06065.ph = phi i32 [ %.sroa.7.057, %.thread62 ], [ %.sroa.7.0, %11 ]
  %14 = getelementptr inbounds nuw i8, ptr %5, i64 128
  store ptr %trim_filter_frame.sink, ptr %14, align 8, !tbaa !30
  br label %15

15:                                               ; preds = %.sink.split, %11
  %.sroa.08.05866 = phi i64 [ 1, %11 ], [ %.sroa.08.05866.ph, %.sink.split ]
  %.sroa.7.06065 = phi i32 [ %.sroa.7.0, %11 ], [ %.sroa.7.06065.ph, %.sink.split ]
  %16 = getelementptr inbounds nuw i8, ptr %5, i64 16
  %17 = load i64, ptr %16, align 8, !tbaa !43
  %.not = icmp eq i64 %17, 9223372036854775807
  br i1 %.not, label %25, label %18

18:                                               ; preds = %15
  %.sroa.7.0.insert.ext = zext i32 %.sroa.7.06065 to i64
  %.sroa.7.0.insert.shift = shl nuw i64 %.sroa.7.0.insert.ext, 32
  %.sroa.08.0.insert.insert = or disjoint i64 %.sroa.7.0.insert.shift, %.sroa.08.05866
  %19 = tail call i64 @av_rescale_q(i64 noundef %17, i64 4294967296000001, i64 %.sroa.08.0.insert.insert) #8
  %20 = getelementptr inbounds nuw i8, ptr %5, i64 48
  %21 = load i64, ptr %20, align 8, !tbaa !44
  %22 = icmp eq i64 %21, -9223372036854775808
  %23 = icmp slt i64 %19, %21
  %or.cond = select i1 %22, i1 true, i1 %23
  br i1 %or.cond, label %24, label %25

24:                                               ; preds = %18
  store i64 %19, ptr %20, align 8, !tbaa !44
  br label %25

25:                                               ; preds = %24, %18, %15
  %26 = getelementptr inbounds nuw i8, ptr %5, i64 24
  %27 = load i64, ptr %26, align 8, !tbaa !45
  %.not52 = icmp eq i64 %27, 9223372036854775807
  br i1 %.not52, label %35, label %28

28:                                               ; preds = %25
  %.sroa.7.0.insert.ext18 = zext i32 %.sroa.7.06065 to i64
  %.sroa.7.0.insert.shift19 = shl nuw i64 %.sroa.7.0.insert.ext18, 32
  %.sroa.08.0.insert.insert12 = or disjoint i64 %.sroa.7.0.insert.shift19, %.sroa.08.05866
  %29 = tail call i64 @av_rescale_q(i64 noundef %27, i64 4294967296000001, i64 %.sroa.08.0.insert.insert12) #8
  %30 = getelementptr inbounds nuw i8, ptr %5, i64 56
  %31 = load i64, ptr %30, align 8, !tbaa !46
  %32 = icmp eq i64 %31, -9223372036854775808
  %33 = icmp sgt i64 %29, %31
  %or.cond54 = select i1 %32, i1 true, i1 %33
  br i1 %or.cond54, label %34, label %35

34:                                               ; preds = %28
  store i64 %29, ptr %30, align 8, !tbaa !46
  br label %35

35:                                               ; preds = %34, %28, %25
  %36 = getelementptr inbounds nuw i8, ptr %5, i64 8
  %37 = load i64, ptr %36, align 8, !tbaa !47
  %.not53 = icmp eq i64 %37, 0
  br i1 %.not53, label %41, label %38

38:                                               ; preds = %35
  %.sroa.7.0.insert.ext23 = zext i32 %.sroa.7.06065 to i64
  %.sroa.7.0.insert.shift24 = shl nuw i64 %.sroa.7.0.insert.ext23, 32
  %.sroa.08.0.insert.insert16 = or disjoint i64 %.sroa.7.0.insert.shift24, %.sroa.08.05866
  %39 = tail call i64 @av_rescale_q(i64 noundef %37, i64 4294967296000001, i64 %.sroa.08.0.insert.insert16) #8
  %40 = getelementptr inbounds nuw i8, ptr %5, i64 104
  store i64 %39, ptr %40, align 8, !tbaa !48
  br label %41

41:                                               ; preds = %38, %35
  ret i32 0
}